; ModuleID = '4/2048.c'
source_filename = "4/2048.c"
target datalayout = "e-m:e-p270:32:32-p271:32:32-p272:64:64-i64:64-f80:128-n8:16:32:64-S128"
target triple = "x86_64-pc-linux-gnu"

@.str = private unnamed_addr constant [5 x i8] c"%d%d\00", align 1
@.str.1 = private unnamed_addr constant [3 x i8] c"%d\00", align 1
@.str.2 = private unnamed_addr constant [4 x i8] c"%d\0A\00", align 1

; Function Attrs: noinline nounwind uwtable
define dso_local i32 @main() #0 {
  %1 = alloca i32, align 4
  %2 = alloca i32, align 4
  %3 = alloca i32, align 4
  %4 = alloca i32, align 4
  %5 = alloca i32, align 4
  %6 = alloca i32, align 4
  %7 = alloca i32, align 4
  %8 = alloca i32, align 4
  %9 = alloca i32, align 4
  %10 = alloca [100 x [100 x i32]], align 16
  store i32 0, i32* %1, align 4
  store i32 0, i32* %8, align 4
  store i32 0, i32* %6, align 4
  store i32 0, i32* %9, align 4
  %11 = call i32 (i8*, ...) @__isoc99_scanf(i8* getelementptr inbounds ([5 x i8], [5 x i8]* @.str, i64 0, i64 0), i32* %3, i32* %2)
  store i32 0, i32* %5, align 4
  br label %12

12:                                               ; preds = %33, %0
  %13 = load i32, i32* %5, align 4
  %14 = load i32, i32* %3, align 4
  %15 = icmp slt i32 %13, %14
  br i1 %15, label %16, label %36

16:                                               ; preds = %12
  store i32 0, i32* %4, align 4
  br label %17

17:                                               ; preds = %29, %16
  %18 = load i32, i32* %4, align 4
  %19 = load i32, i32* %2, align 4
  %20 = icmp slt i32 %18, %19
  br i1 %20, label %21, label %32

21:                                               ; preds = %17
  %22 = load i32, i32* %5, align 4
  %23 = sext i32 %22 to i64
  %24 = getelementptr inbounds [100 x [100 x i32]], [100 x [100 x i32]]* %10, i64 0, i64 %23
  %25 = load i32, i32* %4, align 4
  %26 = sext i32 %25 to i64
  %27 = getelementptr inbounds [100 x i32], [100 x i32]* %24, i64 0, i64 %26
  %28 = call i32 (i8*, ...) @__isoc99_scanf(i8* getelementptr inbounds ([3 x i8], [3 x i8]* @.str.1, i64 0, i64 0), i32* %27)
  br label %29

29:                                               ; preds = %21
  %30 = load i32, i32* %4, align 4
  %31 = add nsw i32 %30, 1
  store i32 %31, i32* %4, align 4
  br label %17

32:                                               ; preds = %17
  br label %33

33:                                               ; preds = %32
  %34 = load i32, i32* %5, align 4
  %35 = add nsw i32 %34, 1
  store i32 %35, i32* %5, align 4
  br label %12

36:                                               ; preds = %12
  %37 = load i32, i32* %3, align 4
  %38 = icmp sgt i32 %37, 1
  br i1 %38, label %39, label %108

39:                                               ; preds = %36
  %40 = load i32, i32* %2, align 4
  %41 = icmp sgt i32 %40, 1
  br i1 %41, label %42, label %108

42:                                               ; preds = %39
  store i32 0, i32* %4, align 4
  store i32 0, i32* %5, align 4
  br label %43

43:                                               ; preds = %102, %42
  %44 = load i32, i32* %4, align 4
  %45 = icmp eq i32 %44, 0
  br i1 %45, label %46, label %48

46:                                               ; preds = %43
  %47 = load i32, i32* %5, align 4
  store i32 %47, i32* %7, align 4
  br label %48

48:                                               ; preds = %46, %43
  %49 = load i32, i32* %4, align 4
  %50 = sext i32 %49 to i64
  %51 = getelementptr inbounds [100 x [100 x i32]], [100 x [100 x i32]]* %10, i64 0, i64 %50
  %52 = load i32, i32* %5, align 4
  %53 = sext i32 %52 to i64
  %54 = getelementptr inbounds [100 x i32], [100 x i32]* %51, i64 0, i64 %53
  %55 = load i32, i32* %54, align 4
  %56 = call i32 (i8*, ...) @printf(i8* getelementptr inbounds ([4 x i8], [4 x i8]* @.str.2, i64 0, i64 0), i32 %55)
  %57 = load i32, i32* %9, align 4
  %58 = add nsw i32 %57, 1
  store i32 %58, i32* %9, align 4
  %59 = load i32, i32* %9, align 4
  %60 = load i32, i32* %3, align 4
  %61 = load i32, i32* %2, align 4
  %62 = mul nsw i32 %60, %61
  %63 = icmp eq i32 %59, %62
  br i1 %63, label %64, label %65

64:                                               ; preds = %48
  br label %107

65:                                               ; preds = %48
  %66 = load i32, i32* %5, align 4
  %67 = icmp eq i32 %66, 0
  br i1 %67, label %73, label %68

68:                                               ; preds = %65
  %69 = load i32, i32* %4, align 4
  %70 = load i32, i32* %3, align 4
  %71 = sub nsw i32 %70, 1
  %72 = icmp eq i32 %69, %71
  br i1 %72, label %73, label %84

73:                                               ; preds = %68, %65
  %74 = load i32, i32* %8, align 4
  %75 = icmp eq i32 %74, 0
  br i1 %75, label %76, label %84

76:                                               ; preds = %73
  store i32 -1, i32* %4, align 4
  %77 = load i32, i32* %7, align 4
  %78 = add nsw i32 %77, 2
  store i32 %78, i32* %5, align 4
  %79 = load i32, i32* %5, align 4
  %80 = load i32, i32* %2, align 4
  %81 = icmp eq i32 %79, %80
  br i1 %81, label %82, label %83

82:                                               ; preds = %76
  store i32 1, i32* %8, align 4
  br label %83

83:                                               ; preds = %82, %76
  br label %84

84:                                               ; preds = %83, %73, %68
  %85 = load i32, i32* %5, align 4
  %86 = icmp eq i32 %85, 0
  br i1 %86, label %92, label %87

87:                                               ; preds = %84
  %88 = load i32, i32* %4, align 4
  %89 = load i32, i32* %3, align 4
  %90 = sub nsw i32 %89, 1
  %91 = icmp eq i32 %88, %90
  br i1 %91, label %92, label %101

92:                                               ; preds = %87, %84
  %93 = load i32, i32* %8, align 4
  %94 = icmp eq i32 %93, 1
  br i1 %94, label %95, label %101

95:                                               ; preds = %92
  %96 = load i32, i32* %2, align 4
  store i32 %96, i32* %5, align 4
  %97 = load i32, i32* %6, align 4
  %98 = add nsw i32 %97, 1
  store i32 %98, i32* %6, align 4
  %99 = load i32, i32* %6, align 4
  %100 = sub nsw i32 %99, 1
  store i32 %100, i32* %4, align 4
  br label %101

101:                                              ; preds = %95, %92, %87
  br label %102

102:                                              ; preds = %101
  %103 = load i32, i32* %4, align 4
  %104 = add nsw i32 %103, 1
  store i32 %104, i32* %4, align 4
  %105 = load i32, i32* %5, align 4
  %106 = add nsw i32 %105, -1
  store i32 %106, i32* %5, align 4
  br label %43

107:                                              ; preds = %64
  br label %135

108:                                              ; preds = %39, %36
  store i32 0, i32* %5, align 4
  br label %109

109:                                              ; preds = %131, %108
  %110 = load i32, i32* %5, align 4
  %111 = load i32, i32* %3, align 4
  %112 = icmp slt i32 %110, %111
  br i1 %112, label %113, label %134

113:                                              ; preds = %109
  store i32 0, i32* %4, align 4
  br label %114

114:                                              ; preds = %127, %113
  %115 = load i32, i32* %4, align 4
  %116 = load i32, i32* %2, align 4
  %117 = icmp slt i32 %115, %116
  br i1 %117, label %118, label %130

118:                                              ; preds = %114
  %119 = load i32, i32* %5, align 4
  %120 = sext i32 %119 to i64
  %121 = getelementptr inbounds [100 x [100 x i32]], [100 x [100 x i32]]* %10, i64 0, i64 %120
  %122 = load i32, i32* %4, align 4
  %123 = sext i32 %122 to i64
  %124 = getelementptr inbounds [100 x i32], [100 x i32]* %121, i64 0, i64 %123
  %125 = load i32, i32* %124, align 4
  %126 = call i32 (i8*, ...) @printf(i8* getelementptr inbounds ([4 x i8], [4 x i8]* @.str.2, i64 0, i64 0), i32 %125)
  br label %127

127:                                              ; preds = %118
  %128 = load i32, i32* %4, align 4
  %129 = add nsw i32 %128, 1
  store i32 %129, i32* %4, align 4
  br label %114

130:                                              ; preds = %114
  br label %131

131:                                              ; preds = %130
  %132 = load i32, i32* %5, align 4
  %133 = add nsw i32 %132, 1
  store i32 %133, i32* %5, align 4
  br label %109

134:                                              ; preds = %109
  br label %135

135:                                              ; preds = %134, %107
  ret i32 0
}

declare dso_local i32 @__isoc99_scanf(i8*, ...) #1

declare dso_local i32 @printf(i8*, ...) #1


!llvm.module.flags = !{!0}
!llvm.ident = !{!1}

!0 = !{i32 1, !"wchar_size", i32 4}
!1 = !{!"clang version 10.0.0-4ubuntu1 "}
